target datalayout = "e-m:e-p270:32:32-p271:32:32-p272:64:64-i64:64-i128:128-f80:128-n8:16:32:64-S128"
target triple = "x86_64-pc-linux-gnu"

@.str.38 = private unnamed_addr constant [1 x i8] zeroinitializer, align 1
@.str.99 = private unnamed_addr constant [5 x i8] c"%10d\00", align 1
@.str.104 = private unnamed_addr constant [7 x i8] c"%10.3f\00", align 1
@.str.105 = private unnamed_addr constant [11 x i8] c"          \00", align 1
@.str.106 = private unnamed_addr constant [32 x i8] c" %-29s %10s%12.3f   %s   %5.1f\0A\00", align 1

; Function Attrs: mustprogress nounwind uwtable
define internal void @_ZL14print_gputimesP8_IO_FILEPKcidd(ptr noundef %0, ptr noundef %1, i32 noundef %2, double noundef %3, double noundef %4) #1 {
  %6 = alloca ptr, align 8
  %7 = alloca ptr, align 8
  %8 = alloca i32, align 4
  %9 = alloca double, align 8
  %10 = alloca double, align 8
  %11 = alloca [11 x i8], align 1
  %12 = alloca [11 x i8], align 1
  store ptr %0, ptr %6, align 8
  store ptr %1, ptr %7, align 8
  store i32 %2, ptr %8, align 4
  store double %3, ptr %9, align 8
  store double %4, ptr %10, align 8
  %13 = load i32, ptr %8, align 4
  %14 = icmp sgt i32 %13, 0
  br i1 %14, label %15, label %25

15:                                               ; preds = %5
  %16 = getelementptr inbounds [11 x i8], ptr %11, i64 0, i64 0
  %17 = load i32, ptr %8, align 4
  %18 = call i32 (ptr, i64, ptr, ...) @snprintf(ptr noundef %16, i64 noundef 11, ptr noundef @.str.99, i32 noundef %17) #13
  %19 = getelementptr inbounds [11 x i8], ptr %12, i64 0, i64 0
  %20 = load double, ptr %9, align 8
  %21 = load i32, ptr %8, align 4
  %22 = sitofp i32 %21 to double
  %23 = fdiv double %20, %22
  %24 = call i32 (ptr, i64, ptr, ...) @snprintf(ptr noundef %19, i64 noundef 11, ptr noundef @.str.104, double noundef %23) #13
  br label %30

25:                                               ; preds = %5
  %26 = getelementptr inbounds [11 x i8], ptr %11, i64 0, i64 0
  %27 = call i32 (ptr, ptr, ...) @sprintf(ptr noundef %26, ptr noundef @.str.105) #13
  %28 = getelementptr inbounds [11 x i8], ptr %12, i64 0, i64 0
  %29 = call i32 (ptr, ptr, ...) @sprintf(ptr noundef %28, ptr noundef @.str.105) #13
  br label %30

30:                                               ; preds = %25, %15
  %31 = load double, ptr %9, align 8
  %32 = load double, ptr %10, align 8
  %33 = fcmp une double %31, %32
  br i1 %33, label %34, label %49

34:                                               ; preds = %30
  %35 = load double, ptr %10, align 8
  %36 = fcmp ogt double %35, 0.000000e+00
  br i1 %36, label %37, label %49

37:                                               ; preds = %34
  %38 = load ptr, ptr %6, align 8
  %39 = load ptr, ptr %7, align 8
  %40 = getelementptr inbounds [11 x i8], ptr %11, i64 0, i64 0
  %41 = load double, ptr %9, align 8
  %42 = fdiv double %41, 1.000000e+03
  %43 = getelementptr inbounds [11 x i8], ptr %12, i64 0, i64 0
  %44 = load double, ptr %9, align 8
  %45 = fmul double 1.000000e+02, %44
  %46 = load double, ptr %10, align 8
  %47 = fdiv double %45, %46
  %48 = call i32 (ptr, ptr, ...) @fprintf(ptr noundef %38, ptr noundef @.str.106, ptr noundef %39, ptr noundef %40, double noundef %42, ptr noundef %43, double noundef %47) #13
  br label %56

49:                                               ; preds = %34, %30
  %50 = load ptr, ptr %6, align 8
  %51 = load ptr, ptr %7, align 8
  %52 = load double, ptr %9, align 8
  %53 = fdiv double %52, 1.000000e+03
  %54 = getelementptr inbounds [11 x i8], ptr %12, i64 0, i64 0
  %55 = call i32 (ptr, ptr, ...) @fprintf(ptr noundef %50, ptr noundef @.str.106, ptr noundef %51, ptr noundef @.str.38, double noundef %53, ptr noundef %54, double noundef 1.000000e+02) #13
  br label %56

56:                                               ; preds = %49, %37
  ret void
}