; Function Attrs: mustprogress nofree nounwind uwtable
define internal fastcc void @_ZL14print_gputimesP8_IO_FILEPKcidd(ptr nocapture noundef %0, ptr noundef %1, i32 noundef %2, double noundef %3, double noundef %4) unnamed_addr #15 {
  %6 = alloca [11 x i8], align 1
  %7 = alloca [11 x i8], align 1
  %8 = icmp sgt i32 %2, 0
  br i1 %8, label %9, label %14

9:                                                ; preds = %5
  %10 = call i32 (ptr, i64, ptr, ...) @snprintf(ptr noundef nonnull dereferenceable(1) %6, i64 noundef 11, ptr noundef nonnull @.str.99, i32 noundef %2) #24
  %11 = sitofp i32 %2 to double
  %12 = fdiv double %3, %11
  %13 = call i32 (ptr, i64, ptr, ...) @snprintf(ptr noundef nonnull dereferenceable(1) %7, i64 noundef 11, ptr noundef nonnull @.str.104, double noundef %12) #24
  br label %15

14:                                               ; preds = %5
  call void @llvm.memcpy.p0.p0.i64(ptr noundef nonnull align 1 dereferenceable(11) %6, ptr noundef nonnull align 1 dereferenceable(11) @.str.105, i64 11, i1 false)
  call void @llvm.memcpy.p0.p0.i64(ptr noundef nonnull align 1 dereferenceable(11) %7, ptr noundef nonnull align 1 dereferenceable(11) @.str.105, i64 11, i1 false)
  br label %15

15:                                               ; preds = %14, %9
  %16 = fcmp une double %3, %4
  %17 = fcmp ogt double %4, 0.000000e+00
  %or.cond = and i1 %16, %17
  %18 = fdiv double %3, 1.000000e+03
  br i1 %or.cond, label %19, label %23

19:                                               ; preds = %15
  %20 = fmul double %3, 1.000000e+02
  %21 = fdiv double %20, %4
  %22 = call i32 (ptr, ptr, ...) @fprintf(ptr noundef %0, ptr noundef nonnull @.str.106, ptr noundef %1, ptr noundef nonnull %6, double noundef %18, ptr noundef nonnull %7, double noundef %21) #24
  br label %25

23:                                               ; preds = %15
  %24 = call i32 (ptr, ptr, ...) @fprintf(ptr noundef %0, ptr noundef nonnull @.str.106, ptr noundef %1, ptr noundef nonnull @.str.38, double noundef %18, ptr noundef nonnull %7, double noundef 1.000000e+02) #24
  br label %25

25:                                               ; preds = %23, %19
  ret void
}